; Function Attrs: mustprogress uwtable
define noundef ptr @_ZN6icu_758TimeZone13createDefaultEv() local_unnamed_addr #0 align 2 personality ptr @__gxx_personality_v0 {
entry:
  %0 = load atomic i32, ptr @_ZL20gDefaultZoneInitOnce acquire, align 4
  %cmp.i = icmp eq i32 %0, 2
  br i1 %cmp.i, label %_ZN6icu_7513umtx_initOnceERNS_9UInitOnceEPFvvE.exit, label %if.end.i

if.end.i:                                         ; preds = %entry
  %call1.i = tail call noundef signext i8 @_ZN6icu_7520umtx_initImplPreInitERNS_9UInitOnceE(ptr noundef nonnull align 4 dereferenceable(8) @_ZL20gDefaultZoneInitOnce)
  %tobool.not.i = icmp eq i8 %call1.i, 0
  br i1 %tobool.not.i, label %_ZN6icu_7513umtx_initOnceERNS_9UInitOnceEPFvvE.exit, label %if.then2.i

if.then2.i:                                       ; preds = %if.end.i
  tail call void @ucln_i18n_registerCleanup_75(i32 noundef 19, ptr noundef nonnull @_ZL16timeZone_cleanupv)
  tail call void @umtx_lock_75(ptr noundef nonnull @_ZN6icu_75L17gDefaultZoneMutexE)
  %1 = load ptr, ptr @_ZL12DEFAULT_ZONE, align 8
  %cmp.not.i = icmp eq ptr %1, null
  br i1 %cmp.not.i, label %if.end.i3, label %cleanup.i

if.end.i3:                                        ; preds = %if.then2.i
  %call.i = invoke noundef ptr @_ZN6icu_758TimeZone18detectHostTimeZoneEv()
          to label %invoke.cont.i unwind label %lpad.i

invoke.cont.i:                                    ; preds = %if.end.i3
  store ptr %call.i, ptr @_ZL12DEFAULT_ZONE, align 8
  br label %cleanup.i

cleanup.i:                                        ; preds = %invoke.cont.i, %if.then2.i
  invoke void @umtx_unlock_75(ptr noundef nonnull @_ZN6icu_75L17gDefaultZoneMutexE)
          to label %_ZN6icu_75L11initDefaultEv.exit unwind label %terminate.lpad.i.i

terminate.lpad.i.i:                               ; preds = %cleanup.i
  %2 = landingpad { ptr, i32 }
          catch ptr null
  %3 = extractvalue { ptr, i32 } %2, 0
  tail call void @__clang_call_terminate(ptr %3) #19
  unreachable

lpad.i:                                           ; preds = %if.end.i3
  %4 = landingpad { ptr, i32 }
          cleanup
  invoke void @umtx_unlock_75(ptr noundef nonnull @_ZN6icu_75L17gDefaultZoneMutexE)
          to label %common.resume unwind label %terminate.lpad.i1.i

terminate.lpad.i1.i:                              ; preds = %lpad.i
  %5 = landingpad { ptr, i32 }
          catch ptr null
  %6 = extractvalue { ptr, i32 } %5, 0
  tail call void @__clang_call_terminate(ptr %6) #19
  unreachable

common.resume:                                    ; preds = %lpad, %lpad.i
  %common.resume.op = phi { ptr, i32 } [ %4, %lpad.i ], [ %11, %lpad ]
  resume { ptr, i32 } %common.resume.op

_ZN6icu_75L11initDefaultEv.exit:                  ; preds = %cleanup.i
  tail call void @_ZN6icu_7521umtx_initImplPostInitERNS_9UInitOnceE(ptr noundef nonnull align 4 dereferenceable(8) @_ZL20gDefaultZoneInitOnce)
  br label %_ZN6icu_7513umtx_initOnceERNS_9UInitOnceEPFvvE.exit

_ZN6icu_7513umtx_initOnceERNS_9UInitOnceEPFvvE.exit: ; preds = %entry, %if.end.i, %_ZN6icu_75L11initDefaultEv.exit
  tail call void @umtx_lock_75(ptr noundef nonnull @_ZN6icu_75L17gDefaultZoneMutexE)
  %7 = load ptr, ptr @_ZL12DEFAULT_ZONE, align 8
  %cmp.not = icmp eq ptr %7, null
  br i1 %cmp.not, label %cond.end, label %cond.true

cond.true:                                        ; preds = %_ZN6icu_7513umtx_initOnceERNS_9UInitOnceEPFvvE.exit
  %vtable = load ptr, ptr %7, align 8
  %vfn = getelementptr inbounds i8, ptr %vtable, i64 96
  %8 = load ptr, ptr %vfn, align 8
  %call = invoke noundef ptr %8(ptr noundef nonnull align 8 dereferenceable(72) %7)
          to label %cond.end unwind label %lpad

cond.end:                                         ; preds = %_ZN6icu_7513umtx_initOnceERNS_9UInitOnceEPFvvE.exit, %cond.true
  %cond = phi ptr [ %call, %cond.true ], [ null, %_ZN6icu_7513umtx_initOnceERNS_9UInitOnceEPFvvE.exit ]
  invoke void @umtx_unlock_75(ptr noundef nonnull @_ZN6icu_75L17gDefaultZoneMutexE)
          to label %_ZN6icu_755MutexD2Ev.exit unwind label %terminate.lpad.i

terminate.lpad.i:                                 ; preds = %cond.end
  %9 = landingpad { ptr, i32 }
          catch ptr null
  %10 = extractvalue { ptr, i32 } %9, 0
  tail call void @__clang_call_terminate(ptr %10) #19
  unreachable

_ZN6icu_755MutexD2Ev.exit:                        ; preds = %cond.end
  ret ptr %cond

lpad:                                             ; preds = %cond.true
  %11 = landingpad { ptr, i32 }
          cleanup
  invoke void @umtx_unlock_75(ptr noundef nonnull @_ZN6icu_75L17gDefaultZoneMutexE)
          to label %common.resume unwind label %terminate.lpad.i1

terminate.lpad.i1:                                ; preds = %lpad
  %12 = landingpad { ptr, i32 }
          catch ptr null
  %13 = extractvalue { ptr, i32 } %12, 0
  tail call void @__clang_call_terminate(ptr %13) #19
  unreachable
}